; Function Attrs: nounwind uwtable
define internal noundef i32 @print_alternate(ptr noundef readonly captures(none) %0, ptr readnone captures(none) %1) #0 {
  %3 = tail call i32 (ptr, ...) @printf(ptr noundef nonnull dereferenceable(1) @.str.21)
  %4 = getelementptr inbounds nuw i8, ptr %0, i64 64
  %5 = load ptr, ptr %4, align 8, !tbaa !36
  %6 = load ptr, ptr @stdout, align 8, !tbaa !41
  %7 = tail call i64 @quote_c_style(ptr noundef %5, ptr noundef null, ptr noundef %6, i32 noundef 0) #7
  %8 = load ptr, ptr @stdout, align 8, !tbaa !41
  %9 = tail call i32 @putc(i32 noundef 10, ptr noundef %8)
  ret i32 0
}